; Function Attrs: nounwind uwtable
define internal fastcc range(i32 -12, 1) i32 @set_buf_size(ptr noundef captures(none) %0, i32 noundef %1) unnamed_addr #3 {
  %3 = sext i32 %1 to i64
  %4 = tail call noalias ptr @av_malloc(i64 noundef %3) #14
  %.not = icmp eq ptr %4, null
  br i1 %.not, label %14, label %url_resetbuf.exit

url_resetbuf.exit:                                ; preds = %2
  %5 = getelementptr inbounds nuw i8, ptr %0, i64 8
  %6 = load ptr, ptr %5, align 8, !tbaa !4
  tail call void @av_free(ptr noundef %6) #14
  store ptr %4, ptr %5, align 8, !tbaa !4
  %7 = getelementptr inbounds nuw i8, ptr %0, i64 16
  store i32 %1, ptr %7, align 8, !tbaa !13
  %8 = getelementptr inbounds nuw i8, ptr %0, i64 264
  store i32 %1, ptr %8, align 8, !tbaa !14
  %9 = getelementptr inbounds nuw i8, ptr %0, i64 184
  store ptr %4, ptr %9, align 8, !tbaa !17
  %10 = getelementptr inbounds nuw i8, ptr %0, i64 24
  store ptr %4, ptr %10, align 8, !tbaa !16
  %11 = getelementptr inbounds nuw i8, ptr %0, i64 88
  %12 = load i32, ptr %11, align 8, !tbaa !20
  %.not14 = icmp ne i32 %12, 0
  %spec.select.idx = select i1 %.not14, i64 %3, i64 0
  %spec.select = getelementptr inbounds i8, ptr %4, i64 %spec.select.idx
  %spec.select15 = zext i1 %.not14 to i32
  %13 = getelementptr inbounds nuw i8, ptr %0, i64 32
  store ptr %spec.select, ptr %13, align 8, !tbaa !19
  store i32 %spec.select15, ptr %11, align 8, !tbaa !20
  br label %14

14:                                               ; preds = %2, %url_resetbuf.exit
  %.0 = phi i32 [ 0, %url_resetbuf.exit ], [ -12, %2 ]
  ret i32 %.0
}